	.file	"isatty.c"
	.option nopic
	.text
.Ltext0:
	.cfi_sections	.debug_frame
	.align	1
	.globl	_isatty
	.type	_isatty, @function
_isatty:
.LFB0:
	.file 1 "libraries/n22/stubs/isatty.c"
	.loc 1 5 21
	.cfi_startproc
	addi	sp,sp,-32
	.cfi_def_cfa_offset 32
	sw	s0,28(sp)
	.cfi_offset 8, -4
	addi	s0,sp,32
	.cfi_def_cfa 8, 0
	sw	a0,-20(s0)
	.loc 1 6 8
	lw	a4,-20(s0)
	li	a5,1
	beq	a4,a5,.L2
	.loc 1 6 28 discriminator 1
	lw	a4,-20(s0)
	li	a5,2
	bne	a4,a5,.L3
.L2:
	.loc 1 7 16
	li	a5,1
	j	.L4
.L3:
	.loc 1 9 12
	li	a5,0
.L4:
	.loc 1 10 1
	mv	a0,a5
	lw	s0,28(sp)
	.cfi_restore 8
	addi	sp,sp,32
	.cfi_def_cfa_register 2
	jr	ra
	.cfi_endproc
.LFE0:
	.size	_isatty, .-_isatty
.Letext0:
	.file 2 "/home/tang/toolchains/riscv-none-gcc/8.2.0-2.2-20190521-0004/riscv-none-embed/include/sys/unistd.h"